target datalayout = "e-m:e-p270:32:32-p271:32:32-p272:64:64-i64:64-i128:128-f80:128-n8:16:32:64-S128"
target triple = "x86_64-pc-linux-gnu"

%struct.AVFilterContext = type { ptr, ptr, ptr, ptr, ptr, i32, ptr, ptr, i32, ptr, ptr, i32, i32, ptr, ptr, ptr, ptr, i32, ptr, i32, i32 }
%struct.StreamSelectContext = type { ptr, i32, ptr, ptr, i32, i32, ptr, ptr, %struct.FFFrameSync }
%struct.FFFrameSync = type { ptr, ptr, i32, %struct.AVRational, i64, ptr, ptr, i32, i32, i8, i8, ptr, i32, i32, i32, i32 }
%struct.AVRational = type { i32, i32 }
%struct.AVFilterLink = type { ptr, ptr, ptr, ptr, i32, i32, i32, i32, %struct.AVRational, i32, i32, i32, %struct.AVChannelLayout, %struct.AVRational, ptr, i32, %struct.AVFilterFormatsConfig, %struct.AVFilterFormatsConfig }
%struct.AVChannelLayout = type { i32, i32, %union.anon.2, ptr }
%union.anon.2 = type { i64 }
%struct.AVFilterFormatsConfig = type { ptr, ptr, ptr, ptr, ptr }
%struct.FilterLink = type { %struct.AVFilterLink, ptr, i64, i64, i32, i32, i64, i64, i64, i64, %struct.AVRational, ptr }
%struct.FFFrameSyncIn = type { i32, i32, %struct.AVRational, ptr, ptr, i64, i64, i8, i8, i32, i32 }

@.str.16 = private unnamed_addr constant [56 x i8] c"config output link %d with settings from input link %d\0A\00", align 1

; Function Attrs: inlinehint nounwind uwtable
define internal ptr @ff_filter_link(ptr noundef %0) #7 {
  %2 = alloca ptr, align 8
  store ptr %0, ptr %2, align 8, !tbaa !53
  %3 = load ptr, ptr %2, align 8, !tbaa !53
  ret ptr %3
}

; Function Attrs: nounwind uwtable
define internal i32 @config_output(ptr noundef %0) #1 {
  %2 = alloca i32, align 4
  %3 = alloca ptr, align 8
  %4 = alloca ptr, align 8
  %5 = alloca ptr, align 8
  %6 = alloca ptr, align 8
  %7 = alloca i32, align 4
  %8 = alloca i32, align 4
  %9 = alloca ptr, align 8
  %10 = alloca ptr, align 8
  %11 = alloca ptr, align 8
  %12 = alloca i32, align 4
  %13 = alloca i32, align 4
  %14 = alloca i32, align 4
  store ptr %0, ptr %3, align 8, !tbaa !53
  call void @llvm.lifetime.start.p0(i64 8, ptr %4) #10
  %15 = load ptr, ptr %3, align 8, !tbaa !53
  %16 = call ptr @ff_filter_link(ptr noundef %15)
  store ptr %16, ptr %4, align 8, !tbaa !55
  call void @llvm.lifetime.start.p0(i64 8, ptr %5) #10
  %17 = load ptr, ptr %3, align 8, !tbaa !53
  %18 = getelementptr inbounds nuw %struct.AVFilterLink, ptr %17, i32 0, i32 0
  %19 = load ptr, ptr %18, align 8, !tbaa !57
  store ptr %19, ptr %5, align 8, !tbaa !4
  call void @llvm.lifetime.start.p0(i64 8, ptr %6) #10
  %20 = load ptr, ptr %5, align 8, !tbaa !4
  %21 = getelementptr inbounds nuw %struct.AVFilterContext, ptr %20, i32 0, i32 9
  %22 = load ptr, ptr %21, align 8, !tbaa !9
  store ptr %22, ptr %6, align 8, !tbaa !22
  call void @llvm.lifetime.start.p0(i64 4, ptr %7) #10
  %23 = load ptr, ptr %3, align 8, !tbaa !53
  %24 = getelementptr inbounds nuw %struct.AVFilterLink, ptr %23, i32 0, i32 1
  %25 = load ptr, ptr %24, align 8, !tbaa !64
  %26 = load ptr, ptr %3, align 8, !tbaa !53
  %27 = getelementptr inbounds nuw %struct.AVFilterLink, ptr %26, i32 0, i32 0
  %28 = load ptr, ptr %27, align 8, !tbaa !57
  %29 = getelementptr inbounds nuw %struct.AVFilterContext, ptr %28, i32 0, i32 6
  %30 = load ptr, ptr %29, align 8, !tbaa !65
  %31 = ptrtoint ptr %25 to i64
  %32 = ptrtoint ptr %30 to i64
  %33 = sub i64 %31, %32
  %34 = sdiv exact i64 %33, 48
  %35 = trunc i64 %34 to i32
  store i32 %35, ptr %7, align 4, !tbaa !24
  call void @llvm.lifetime.start.p0(i64 4, ptr %8) #10
  %36 = load ptr, ptr %6, align 8, !tbaa !22
  %37 = getelementptr inbounds nuw %struct.StreamSelectContext, ptr %36, i32 0, i32 3
  %38 = load ptr, ptr %37, align 8, !tbaa !51
  %39 = load i32, ptr %7, align 4, !tbaa !24
  %40 = sext i32 %39 to i64
  %41 = getelementptr inbounds i32, ptr %38, i64 %40
  %42 = load i32, ptr %41, align 4, !tbaa !24
  store i32 %42, ptr %8, align 4, !tbaa !24
  call void @llvm.lifetime.start.p0(i64 8, ptr %9) #10
  %43 = load ptr, ptr %5, align 8, !tbaa !4
  %44 = getelementptr inbounds nuw %struct.AVFilterContext, ptr %43, i32 0, i32 4
  %45 = load ptr, ptr %44, align 8, !tbaa !66
  %46 = load i32, ptr %8, align 4, !tbaa !24
  %47 = sext i32 %46 to i64
  %48 = getelementptr inbounds ptr, ptr %45, i64 %47
  %49 = load ptr, ptr %48, align 8, !tbaa !53
  store ptr %49, ptr %9, align 8, !tbaa !53
  call void @llvm.lifetime.start.p0(i64 8, ptr %10) #10
  %50 = load ptr, ptr %9, align 8, !tbaa !53
  %51 = call ptr @ff_filter_link(ptr noundef %50)
  store ptr %51, ptr %10, align 8, !tbaa !55
  call void @llvm.lifetime.start.p0(i64 8, ptr %11) #10
  call void @llvm.lifetime.start.p0(i64 4, ptr %12) #10
  call void @llvm.lifetime.start.p0(i64 4, ptr %13) #10
  %52 = load ptr, ptr %5, align 8, !tbaa !4
  %53 = load i32, ptr %7, align 4, !tbaa !24
  %54 = load i32, ptr %8, align 4, !tbaa !24
  call void (ptr, i32, ptr, ...) @av_log(ptr noundef %52, i32 noundef 40, ptr noundef @.str.16, i32 noundef %53, i32 noundef %54)
  %55 = load ptr, ptr %3, align 8, !tbaa !53
  %56 = getelementptr inbounds nuw %struct.AVFilterLink, ptr %55, i32 0, i32 4
  %57 = load i32, ptr %56, align 8, !tbaa !67
  switch i32 %57, label %90 [
    i32 0, label %58
    i32 1, label %77
  ]

58:                                               ; preds = %1
  %59 = load ptr, ptr %9, align 8, !tbaa !53
  %60 = getelementptr inbounds nuw %struct.AVFilterLink, ptr %59, i32 0, i32 6
  %61 = load i32, ptr %60, align 8, !tbaa !68
  %62 = load ptr, ptr %3, align 8, !tbaa !53
  %63 = getelementptr inbounds nuw %struct.AVFilterLink, ptr %62, i32 0, i32 6
  store i32 %61, ptr %63, align 8, !tbaa !68
  %64 = load ptr, ptr %9, align 8, !tbaa !53
  %65 = getelementptr inbounds nuw %struct.AVFilterLink, ptr %64, i32 0, i32 7
  %66 = load i32, ptr %65, align 4, !tbaa !69
  %67 = load ptr, ptr %3, align 8, !tbaa !53
  %68 = getelementptr inbounds nuw %struct.AVFilterLink, ptr %67, i32 0, i32 7
  store i32 %66, ptr %68, align 4, !tbaa !69
  %69 = load ptr, ptr %3, align 8, !tbaa !53
  %70 = getelementptr inbounds nuw %struct.AVFilterLink, ptr %69, i32 0, i32 8
  %71 = load ptr, ptr %9, align 8, !tbaa !53
  %72 = getelementptr inbounds nuw %struct.AVFilterLink, ptr %71, i32 0, i32 8
  call void @llvm.memcpy.p0.p0.i64(ptr align 8 %70, ptr align 8 %72, i64 8, i1 false), !tbaa.struct !70
  %73 = load ptr, ptr %4, align 8, !tbaa !55
  %74 = getelementptr inbounds nuw %struct.FilterLink, ptr %73, i32 0, i32 10
  %75 = load ptr, ptr %10, align 8, !tbaa !55
  %76 = getelementptr inbounds nuw %struct.FilterLink, ptr %75, i32 0, i32 10
  call void @llvm.memcpy.p0.p0.i64(ptr align 8 %74, ptr align 8 %76, i64 8, i1 false), !tbaa.struct !70
  br label %90

77:                                               ; preds = %1
  %78 = load ptr, ptr %9, align 8, !tbaa !53
  %79 = getelementptr inbounds nuw %struct.AVFilterLink, ptr %78, i32 0, i32 11
  %80 = load i32, ptr %79, align 8, !tbaa !71
  %81 = load ptr, ptr %3, align 8, !tbaa !53
  %82 = getelementptr inbounds nuw %struct.AVFilterLink, ptr %81, i32 0, i32 11
  store i32 %80, ptr %82, align 8, !tbaa !71
  %83 = load ptr, ptr %9, align 8, !tbaa !53
  %84 = getelementptr inbounds nuw %struct.AVFilterLink, ptr %83, i32 0, i32 12
  %85 = getelementptr inbounds nuw %struct.AVChannelLayout, ptr %84, i32 0, i32 1
  %86 = load i32, ptr %85, align 4, !tbaa !72
  %87 = load ptr, ptr %3, align 8, !tbaa !53
  %88 = getelementptr inbounds nuw %struct.AVFilterLink, ptr %87, i32 0, i32 12
  %89 = getelementptr inbounds nuw %struct.AVChannelLayout, ptr %88, i32 0, i32 1
  store i32 %86, ptr %89, align 4, !tbaa !72
  br label %90

90:                                               ; preds = %1, %77, %58
  %91 = load ptr, ptr %3, align 8, !tbaa !53
  %92 = getelementptr inbounds nuw %struct.AVFilterLink, ptr %91, i32 0, i32 13
  %93 = load ptr, ptr %9, align 8, !tbaa !53
  %94 = getelementptr inbounds nuw %struct.AVFilterLink, ptr %93, i32 0, i32 13
  call void @llvm.memcpy.p0.p0.i64(ptr align 8 %92, ptr align 8 %94, i64 8, i1 false), !tbaa.struct !70
  %95 = load ptr, ptr %9, align 8, !tbaa !53
  %96 = getelementptr inbounds nuw %struct.AVFilterLink, ptr %95, i32 0, i32 5
  %97 = load i32, ptr %96, align 4, !tbaa !73
  %98 = load ptr, ptr %3, align 8, !tbaa !53
  %99 = getelementptr inbounds nuw %struct.AVFilterLink, ptr %98, i32 0, i32 5
  store i32 %97, ptr %99, align 4, !tbaa !73
  %100 = load ptr, ptr %6, align 8, !tbaa !22
  %101 = getelementptr inbounds nuw %struct.StreamSelectContext, ptr %100, i32 0, i32 8
  %102 = getelementptr inbounds nuw %struct.FFFrameSync, ptr %101, i32 0, i32 6
  %103 = load ptr, ptr %102, align 8, !tbaa !74
  %104 = load ptr, ptr %6, align 8, !tbaa !22
  %105 = icmp eq ptr %103, %104
  br i1 %105, label %106, label %107

106:                                              ; preds = %90
  store i32 0, ptr %2, align 4
  store i32 1, ptr %14, align 4
  br label %185

107:                                              ; preds = %90
  %108 = load ptr, ptr %6, align 8, !tbaa !22
  %109 = getelementptr inbounds nuw %struct.StreamSelectContext, ptr %108, i32 0, i32 8
  %110 = load ptr, ptr %5, align 8, !tbaa !4
  %111 = load ptr, ptr %5, align 8, !tbaa !4
  %112 = getelementptr inbounds nuw %struct.AVFilterContext, ptr %111, i32 0, i32 5
  %113 = load i32, ptr %112, align 8, !tbaa !43
  %114 = call i32 @ff_framesync_init(ptr noundef %109, ptr noundef %110, i32 noundef %113)
  store i32 %114, ptr %13, align 4, !tbaa !24
  %115 = icmp slt i32 %114, 0
  br i1 %115, label %116, label %118

116:                                              ; preds = %107
  %117 = load i32, ptr %13, align 4, !tbaa !24
  store i32 %117, ptr %2, align 4
  store i32 1, ptr %14, align 4
  br label %185

118:                                              ; preds = %107
  %119 = load ptr, ptr %6, align 8, !tbaa !22
  %120 = getelementptr inbounds nuw %struct.StreamSelectContext, ptr %119, i32 0, i32 8
  %121 = getelementptr inbounds nuw %struct.FFFrameSync, ptr %120, i32 0, i32 11
  %122 = load ptr, ptr %121, align 8, !tbaa !75
  store ptr %122, ptr %11, align 8, !tbaa !76
  %123 = load ptr, ptr %6, align 8, !tbaa !22
  %124 = load ptr, ptr %6, align 8, !tbaa !22
  %125 = getelementptr inbounds nuw %struct.StreamSelectContext, ptr %124, i32 0, i32 8
  %126 = getelementptr inbounds nuw %struct.FFFrameSync, ptr %125, i32 0, i32 6
  store ptr %123, ptr %126, align 8, !tbaa !74
  %127 = load ptr, ptr %6, align 8, !tbaa !22
  %128 = getelementptr inbounds nuw %struct.StreamSelectContext, ptr %127, i32 0, i32 8
  %129 = getelementptr inbounds nuw %struct.FFFrameSync, ptr %128, i32 0, i32 5
  store ptr @process_frame, ptr %129, align 8, !tbaa !77
  store i32 0, ptr %12, align 4, !tbaa !24
  br label %130

130:                                              ; preds = %165, %118
  %131 = load i32, ptr %12, align 4, !tbaa !24
  %132 = load ptr, ptr %5, align 8, !tbaa !4
  %133 = getelementptr inbounds nuw %struct.AVFilterContext, ptr %132, i32 0, i32 5
  %134 = load i32, ptr %133, align 8, !tbaa !43
  %135 = icmp ult i32 %131, %134
  br i1 %135, label %136, label %168

136:                                              ; preds = %130
  %137 = load ptr, ptr %11, align 8, !tbaa !76
  %138 = load i32, ptr %12, align 4, !tbaa !24
  %139 = sext i32 %138 to i64
  %140 = getelementptr inbounds %struct.FFFrameSyncIn, ptr %137, i64 %139
  %141 = getelementptr inbounds nuw %struct.FFFrameSyncIn, ptr %140, i32 0, i32 2
  %142 = load ptr, ptr %5, align 8, !tbaa !4
  %143 = getelementptr inbounds nuw %struct.AVFilterContext, ptr %142, i32 0, i32 4
  %144 = load ptr, ptr %143, align 8, !tbaa !66
  %145 = load i32, ptr %12, align 4, !tbaa !24
  %146 = sext i32 %145 to i64
  %147 = getelementptr inbounds ptr, ptr %144, i64 %146
  %148 = load ptr, ptr %147, align 8, !tbaa !53
  %149 = getelementptr inbounds nuw %struct.AVFilterLink, ptr %148, i32 0, i32 13
  call void @llvm.memcpy.p0.p0.i64(ptr align 8 %141, ptr align 8 %149, i64 8, i1 false), !tbaa.struct !70
  %150 = load ptr, ptr %11, align 8, !tbaa !76
  %151 = load i32, ptr %12, align 4, !tbaa !24
  %152 = sext i32 %151 to i64
  %153 = getelementptr inbounds %struct.FFFrameSyncIn, ptr %150, i64 %152
  %154 = getelementptr inbounds nuw %struct.FFFrameSyncIn, ptr %153, i32 0, i32 9
  store i32 1, ptr %154, align 4, !tbaa !78
  %155 = load ptr, ptr %11, align 8, !tbaa !76
  %156 = load i32, ptr %12, align 4, !tbaa !24
  %157 = sext i32 %156 to i64
  %158 = getelementptr inbounds %struct.FFFrameSyncIn, ptr %155, i64 %157
  %159 = getelementptr inbounds nuw %struct.FFFrameSyncIn, ptr %158, i32 0, i32 0
  store i32 0, ptr %159, align 8, !tbaa !81
  %160 = load ptr, ptr %11, align 8, !tbaa !76
  %161 = load i32, ptr %12, align 4, !tbaa !24
  %162 = sext i32 %161 to i64
  %163 = getelementptr inbounds %struct.FFFrameSyncIn, ptr %160, i64 %162
  %164 = getelementptr inbounds nuw %struct.FFFrameSyncIn, ptr %163, i32 0, i32 1
  store i32 0, ptr %164, align 4, !tbaa !82
  br label %165

165:                                              ; preds = %136
  %166 = load i32, ptr %12, align 4, !tbaa !24
  %167 = add nsw i32 %166, 1
  store i32 %167, ptr %12, align 4, !tbaa !24
  br label %130, !llvm.loop !83

168:                                              ; preds = %130
  %169 = load ptr, ptr %5, align 8, !tbaa !4
  %170 = getelementptr inbounds nuw %struct.AVFilterContext, ptr %169, i32 0, i32 5
  %171 = load i32, ptr %170, align 8, !tbaa !43
  %172 = zext i32 %171 to i64
  %173 = call noalias ptr @av_calloc(i64 noundef %172, i64 noundef 8)
  %174 = load ptr, ptr %6, align 8, !tbaa !22
  %175 = getelementptr inbounds nuw %struct.StreamSelectContext, ptr %174, i32 0, i32 7
  store ptr %173, ptr %175, align 8, !tbaa !84
  %176 = load ptr, ptr %6, align 8, !tbaa !22
  %177 = getelementptr inbounds nuw %struct.StreamSelectContext, ptr %176, i32 0, i32 7
  %178 = load ptr, ptr %177, align 8, !tbaa !84
  %179 = icmp ne ptr %178, null
  br i1 %179, label %181, label %180

180:                                              ; preds = %168
  store i32 -12, ptr %2, align 4
  store i32 1, ptr %14, align 4
  br label %185

181:                                              ; preds = %168
  %182 = load ptr, ptr %6, align 8, !tbaa !22
  %183 = getelementptr inbounds nuw %struct.StreamSelectContext, ptr %182, i32 0, i32 8
  %184 = call i32 @ff_framesync_configure(ptr noundef %183)
  store i32 %184, ptr %2, align 4
  store i32 1, ptr %14, align 4
  br label %185

185:                                              ; preds = %181, %180, %116, %106
  call void @llvm.lifetime.end.p0(i64 4, ptr %13) #10
  call void @llvm.lifetime.end.p0(i64 4, ptr %12) #10
  call void @llvm.lifetime.end.p0(i64 8, ptr %11) #10
  call void @llvm.lifetime.end.p0(i64 8, ptr %10) #10
  call void @llvm.lifetime.end.p0(i64 8, ptr %9) #10
  call void @llvm.lifetime.end.p0(i64 4, ptr %8) #10
  call void @llvm.lifetime.end.p0(i64 4, ptr %7) #10
  call void @llvm.lifetime.end.p0(i64 8, ptr %6) #10
  call void @llvm.lifetime.end.p0(i64 8, ptr %5) #10
  call void @llvm.lifetime.end.p0(i64 8, ptr %4) #10
  %186 = load i32, ptr %2, align 4
  ret i32 %186
}