; Function Attrs: nounwind uwtable
define internal i32 @config_output(ptr noundef captures(none) initializes((36, 40), (96, 104)) %0) #1 {
  %2 = load ptr, ptr %0, align 8, !tbaa !48
  %3 = getelementptr inbounds nuw i8, ptr %2, i64 72
  %4 = load ptr, ptr %3, align 8, !tbaa !4
  %5 = getelementptr inbounds nuw i8, ptr %0, i64 8
  %6 = load ptr, ptr %5, align 8, !tbaa !55
  %7 = getelementptr inbounds nuw i8, ptr %2, i64 48
  %8 = load ptr, ptr %7, align 8, !tbaa !56
  %9 = ptrtoint ptr %6 to i64
  %10 = ptrtoint ptr %8 to i64
  %11 = sub i64 %9, %10
  %12 = sdiv exact i64 %11, 48
  %13 = trunc i64 %12 to i32
  %14 = getelementptr inbounds nuw i8, ptr %4, i64 24
  %15 = load ptr, ptr %14, align 8, !tbaa !46
  %sext = shl i64 %12, 32
  %16 = ashr exact i64 %sext, 30
  %17 = getelementptr inbounds i8, ptr %15, i64 %16
  %18 = load i32, ptr %17, align 4, !tbaa !45
  %19 = getelementptr inbounds nuw i8, ptr %2, i64 32
  %20 = load ptr, ptr %19, align 8, !tbaa !57
  %21 = sext i32 %18 to i64
  %22 = getelementptr inbounds ptr, ptr %20, i64 %21
  %23 = load ptr, ptr %22, align 8, !tbaa !58
  tail call void (ptr, i32, ptr, ...) @av_log(ptr noundef %2, i32 noundef 40, ptr noundef nonnull @.str.16, i32 noundef %13, i32 noundef %18) #9
  %24 = getelementptr inbounds nuw i8, ptr %0, i64 32
  %25 = load i32, ptr %24, align 8, !tbaa !60
  switch i32 %25, label %46 [
    i32 0, label %26
    i32 1, label %39
  ]

26:                                               ; preds = %1
  %27 = getelementptr inbounds nuw i8, ptr %23, i64 40
  %28 = load i32, ptr %27, align 8, !tbaa !61
  %29 = getelementptr inbounds nuw i8, ptr %0, i64 40
  store i32 %28, ptr %29, align 8, !tbaa !61
  %30 = getelementptr inbounds nuw i8, ptr %23, i64 44
  %31 = load i32, ptr %30, align 4, !tbaa !62
  %32 = getelementptr inbounds nuw i8, ptr %0, i64 44
  store i32 %31, ptr %32, align 4, !tbaa !62
  %33 = getelementptr inbounds nuw i8, ptr %0, i64 48
  %34 = getelementptr inbounds nuw i8, ptr %23, i64 48
  %35 = load i64, ptr %34, align 8
  store i64 %35, ptr %33, align 8
  %36 = getelementptr inbounds nuw i8, ptr %0, i64 264
  %37 = getelementptr inbounds nuw i8, ptr %23, i64 264
  %38 = load i64, ptr %37, align 8
  store i64 %38, ptr %36, align 8
  br label %46

39:                                               ; preds = %1
  %40 = getelementptr inbounds nuw i8, ptr %23, i64 64
  %41 = load i32, ptr %40, align 8, !tbaa !63
  %42 = getelementptr inbounds nuw i8, ptr %0, i64 64
  store i32 %41, ptr %42, align 8, !tbaa !63
  %43 = getelementptr inbounds nuw i8, ptr %23, i64 76
  %44 = load i32, ptr %43, align 4, !tbaa !64
  %45 = getelementptr inbounds nuw i8, ptr %0, i64 76
  store i32 %44, ptr %45, align 4, !tbaa !64
  br label %46

46:                                               ; preds = %39, %26, %1
  %47 = getelementptr inbounds nuw i8, ptr %0, i64 96
  %48 = getelementptr inbounds nuw i8, ptr %23, i64 96
  %49 = load i64, ptr %48, align 8
  store i64 %49, ptr %47, align 8
  %50 = getelementptr inbounds nuw i8, ptr %23, i64 36
  %51 = load i32, ptr %50, align 4, !tbaa !65
  %52 = getelementptr inbounds nuw i8, ptr %0, i64 36
  store i32 %51, ptr %52, align 4, !tbaa !65
  %53 = getelementptr inbounds nuw i8, ptr %4, i64 56
  %54 = getelementptr inbounds nuw i8, ptr %4, i64 104
  %55 = load ptr, ptr %54, align 8, !tbaa !66
  %56 = icmp eq ptr %55, %4
  br i1 %56, label %84, label %57

57:                                               ; preds = %46
  %58 = getelementptr inbounds nuw i8, ptr %2, i64 40
  %59 = load i32, ptr %58, align 8, !tbaa !37
  %60 = tail call i32 @ff_framesync_init(ptr noundef nonnull %53, ptr noundef nonnull %2, i32 noundef %59) #9
  %61 = icmp slt i32 %60, 0
  br i1 %61, label %84, label %62

62:                                               ; preds = %57
  %63 = getelementptr inbounds nuw i8, ptr %4, i64 128
  %64 = load ptr, ptr %63, align 8, !tbaa !67
  store ptr %4, ptr %54, align 8, !tbaa !66
  %65 = getelementptr inbounds nuw i8, ptr %4, i64 96
  store ptr @process_frame, ptr %65, align 8, !tbaa !68
  %66 = load i32, ptr %58, align 8, !tbaa !37
  %.not62 = icmp eq i32 %66, 0
  br i1 %.not62, label %._crit_edge, label %.lr.ph

.lr.ph:                                           ; preds = %62, %.lr.ph
  %indvars.iv = phi i64 [ %indvars.iv.next, %.lr.ph ], [ 0, %62 ]
  %67 = getelementptr inbounds nuw %struct.FFFrameSyncIn, ptr %64, i64 %indvars.iv
  %68 = getelementptr inbounds nuw i8, ptr %67, i64 8
  %69 = load ptr, ptr %19, align 8, !tbaa !57
  %70 = getelementptr inbounds nuw ptr, ptr %69, i64 %indvars.iv
  %71 = load ptr, ptr %70, align 8, !tbaa !58
  %72 = getelementptr inbounds nuw i8, ptr %71, i64 96
  %73 = load i64, ptr %72, align 8
  store i64 %73, ptr %68, align 8
  %74 = getelementptr inbounds nuw i8, ptr %67, i64 52
  store i32 1, ptr %74, align 4, !tbaa !69
  store i32 0, ptr %67, align 8, !tbaa !72
  %75 = getelementptr inbounds nuw i8, ptr %67, i64 4
  store i32 0, ptr %75, align 4, !tbaa !73
  %indvars.iv.next = add nuw nsw i64 %indvars.iv, 1
  %76 = load i32, ptr %58, align 8, !tbaa !37
  %77 = zext i32 %76 to i64
  %78 = icmp samesign ult i64 %indvars.iv.next, %77
  br i1 %78, label %.lr.ph, label %._crit_edge.loopexit, !llvm.loop !74

._crit_edge.loopexit:                             ; preds = %.lr.ph
  %79 = zext i32 %76 to i64
  br label %._crit_edge

._crit_edge:                                      ; preds = %62, %._crit_edge.loopexit
  %.lcssa = phi i64 [ %79, %._crit_edge.loopexit ], [ 0, %62 ]
  %80 = tail call noalias ptr @av_calloc(i64 noundef %.lcssa, i64 noundef 8) #9
  %81 = getelementptr inbounds nuw i8, ptr %4, i64 48
  store ptr %80, ptr %81, align 8, !tbaa !75
  %.not = icmp eq ptr %80, null
  br i1 %.not, label %84, label %82

82:                                               ; preds = %._crit_edge
  %83 = tail call i32 @ff_framesync_configure(ptr noundef nonnull %53) #9
  br label %84

84:                                               ; preds = %._crit_edge, %57, %46, %82
  %.0 = phi i32 [ %83, %82 ], [ 0, %46 ], [ %60, %57 ], [ -12, %._crit_edge ]
  ret i32 %.0
}